target datalayout = "e-m:e-p270:32:32-p271:32:32-p272:64:64-i64:64-i128:128-f80:128-n8:16:32:64-S128"
target triple = "x86_64-pc-linux-gnu"

%"class.Eigen::PlainObjectBase.13" = type { %"class.Eigen::DenseStorage.20" }
%"class.Eigen::DenseStorage.20" = type { %"struct.Eigen::internal::plain_array" }
%"struct.Eigen::internal::plain_array" = type { [3 x float] }
%struct.RTCRayHit = type { %struct.RTCRay, %struct.RTCHit }
%struct.RTCRay = type { float, float, float, float, float, float, float, float, float, i32, i32, i32 }
%struct.RTCHit = type { float, float, float, float, float, i32, i32, [1 x i32], [1 x i32], [12 x i8] }
%"struct.Eigen::internal::evaluator.343" = type { %"struct.Eigen::internal::evaluator.344" }
%"struct.Eigen::internal::evaluator.344" = type { %"class.Eigen::internal::plainobjectbase_evaluator_data.347" }
%"class.Eigen::internal::plainobjectbase_evaluator_data.347" = type { ptr }

; Function Attrs: inlinehint mustprogress nounwind uwtable
define linkonce_odr dso_local void @_ZN5Eigen8internal22ignore_unused_variableIlEEvRKT_(ptr noundef nonnull align 8 dereferenceable(8) %0) #5 comdat {
  %2 = alloca ptr, align 8
  store ptr %0, ptr %2, align 8, !tbaa !349
  ret void
}

; Function Attrs: mustprogress nounwind uwtable
define linkonce_odr dso_local noundef ptr @_ZNK5Eigen12DenseStorageIfLi3ELi1ELi3ELi1EE4dataEv(ptr noundef nonnull align 4 dereferenceable(12) %0) #1 comdat align 2 {
  %2 = alloca ptr, align 8
  store ptr %0, ptr %2, align 8, !tbaa !445
  %3 = load ptr, ptr %2, align 8
  %4 = getelementptr inbounds nuw %"class.Eigen::DenseStorage.20", ptr %3, i32 0, i32 0
  %5 = getelementptr inbounds nuw %"struct.Eigen::internal::plain_array", ptr %4, i32 0, i32 0
  %6 = getelementptr inbounds [3 x float], ptr %5, i64 0, i64 0
  ret ptr %6
}

; Function Attrs: inlinehint mustprogress nounwind uwtable
define linkonce_odr dso_local void @_ZN5Eigen8internal30plainobjectbase_evaluator_dataIfLi0EEC2EPKfl(ptr noundef nonnull align 8 dereferenceable(8) %0, ptr noundef %1, i64 noundef %2) unnamed_addr #5 comdat align 2 {
  %4 = alloca ptr, align 8
  %5 = alloca ptr, align 8
  %6 = alloca i64, align 8
  store ptr %0, ptr %4, align 8, !tbaa !654
  store ptr %1, ptr %5, align 8, !tbaa !57
  store i64 %2, ptr %6, align 8, !tbaa !136
  %7 = load ptr, ptr %4, align 8
  %8 = getelementptr inbounds nuw %"class.Eigen::internal::plainobjectbase_evaluator_data.347", ptr %7, i32 0, i32 0
  %9 = load ptr, ptr %5, align 8, !tbaa !57
  store ptr %9, ptr %8, align 8, !tbaa !656
  call void @_ZN5Eigen8internal22ignore_unused_variableIlEEvRKT_(ptr noundef nonnull align 8 dereferenceable(8) %6)
  ret void
}

; Function Attrs: inlinehint mustprogress uwtable
define linkonce_odr dso_local noundef ptr @_ZNK5Eigen15PlainObjectBaseINS_6MatrixIfLi1ELi3ELi1ELi1ELi3EEEE4dataEv(ptr noundef nonnull align 4 dereferenceable(12) %0) #4 comdat align 2 {
  %2 = alloca ptr, align 8
  store ptr %0, ptr %2, align 8, !tbaa !341
  %3 = load ptr, ptr %2, align 8
  %4 = getelementptr inbounds nuw %"class.Eigen::PlainObjectBase.13", ptr %3, i32 0, i32 0
  %5 = call noundef ptr @_ZNK5Eigen12DenseStorageIfLi3ELi1ELi3ELi1EE4dataEv(ptr noundef nonnull align 4 dereferenceable(12) %4)
  ret ptr %5
}

; Function Attrs: inlinehint mustprogress nounwind uwtable
define linkonce_odr dso_local void @_ZN5Eigen8internal14evaluator_baseINS_6MatrixIfLi1ELi3ELi1ELi1ELi3EEEEC2Ev(ptr noundef nonnull align 1 dereferenceable(1) %0) unnamed_addr #5 comdat align 2 {
  %2 = alloca ptr, align 8
  store ptr %0, ptr %2, align 8, !tbaa !652
  ret void
}

; Function Attrs: inlinehint mustprogress uwtable
define linkonce_odr dso_local void @_ZN5Eigen8internal9evaluatorINS_15PlainObjectBaseINS_6MatrixIfLi1ELi3ELi1ELi1ELi3EEEEEEC2ERKS5_(ptr noundef nonnull align 8 dereferenceable(8) %0, ptr noundef nonnull align 4 dereferenceable(12) %1) unnamed_addr #4 comdat align 2 personality ptr @__gxx_personality_v0 {
  %3 = alloca ptr, align 8
  %4 = alloca ptr, align 8
  %5 = alloca ptr, align 8
  %6 = alloca i32, align 4
  store ptr %0, ptr %3, align 8, !tbaa !647
  store ptr %1, ptr %4, align 8, !tbaa !341
  %7 = load ptr, ptr %3, align 8
  call void @_ZN5Eigen8internal14evaluator_baseINS_6MatrixIfLi1ELi3ELi1ELi1ELi3EEEEC2Ev(ptr noundef nonnull align 1 dereferenceable(1) %7)
  %8 = getelementptr inbounds nuw %"struct.Eigen::internal::evaluator.344", ptr %7, i32 0, i32 0
  %9 = load ptr, ptr %4, align 8, !tbaa !341
  %10 = invoke noundef ptr @_ZNK5Eigen15PlainObjectBaseINS_6MatrixIfLi1ELi3ELi1ELi1ELi3EEEE4dataEv(ptr noundef nonnull align 4 dereferenceable(12) %9)
          to label %11 unwind label %13

11:                                               ; preds = %2
  invoke void @_ZN5Eigen8internal30plainobjectbase_evaluator_dataIfLi0EEC2EPKfl(ptr noundef nonnull align 8 dereferenceable(8) %8, ptr noundef %10, i64 noundef 0)
          to label %12 unwind label %13

12:                                               ; preds = %11
  ret void

13:                                               ; preds = %11, %2
  %14 = landingpad { ptr, i32 }
          cleanup
  %15 = extractvalue { ptr, i32 } %14, 0
  store ptr %15, ptr %5, align 8
  %16 = extractvalue { ptr, i32 } %14, 1
  store i32 %16, ptr %6, align 4
  call void @_ZN5Eigen8internal14evaluator_baseINS_6MatrixIfLi1ELi3ELi1ELi1ELi3EEEED2Ev(ptr noundef nonnull align 1 dereferenceable(1) %7) #11
  br label %17

17:                                               ; preds = %13
  %18 = load ptr, ptr %5, align 8
  %19 = load i32, ptr %6, align 4
  %20 = insertvalue { ptr, i32 } poison, ptr %18, 0
  %21 = insertvalue { ptr, i32 } %20, i32 %19, 1
  resume { ptr, i32 } %21
}

; Function Attrs: inlinehint mustprogress nounwind uwtable
define linkonce_odr dso_local void @_ZN5Eigen8internal14evaluator_baseINS_6MatrixIfLi1ELi3ELi1ELi1ELi3EEEED2Ev(ptr noundef nonnull align 1 dereferenceable(1) %0) unnamed_addr #5 comdat align 2 {
  %2 = alloca ptr, align 8
  store ptr %0, ptr %2, align 8, !tbaa !652
  ret void
}

; Function Attrs: inlinehint mustprogress nounwind uwtable
define linkonce_odr dso_local noundef nonnull align 4 dereferenceable(4) ptr @_ZNK5Eigen8internal9evaluatorINS_15PlainObjectBaseINS_6MatrixIfLi1ELi3ELi1ELi1ELi3EEEEEE5coeffEl(ptr noundef nonnull align 8 dereferenceable(8) %0, i64 noundef %1) #5 comdat align 2 {
  %3 = alloca ptr, align 8
  %4 = alloca i64, align 8
  store ptr %0, ptr %3, align 8, !tbaa !647
  store i64 %1, ptr %4, align 8, !tbaa !136
  %5 = load ptr, ptr %3, align 8
  %6 = getelementptr inbounds nuw %"struct.Eigen::internal::evaluator.344", ptr %5, i32 0, i32 0
  %7 = getelementptr inbounds nuw %"class.Eigen::internal::plainobjectbase_evaluator_data.347", ptr %6, i32 0, i32 0
  %8 = load ptr, ptr %7, align 8, !tbaa !649
  %9 = load i64, ptr %4, align 8, !tbaa !136
  %10 = getelementptr inbounds float, ptr %8, i64 %9
  ret ptr %10
}

; Function Attrs: inlinehint mustprogress uwtable
define linkonce_odr dso_local void @_ZN5Eigen8internal9evaluatorINS_6MatrixIfLi1ELi3ELi1ELi1ELi3EEEEC2ERKS3_(ptr noundef nonnull align 8 dereferenceable(8) %0, ptr noundef nonnull align 4 dereferenceable(12) %1) unnamed_addr #4 comdat align 2 {
  %3 = alloca ptr, align 8
  %4 = alloca ptr, align 8
  store ptr %0, ptr %3, align 8, !tbaa !645
  store ptr %1, ptr %4, align 8, !tbaa !85
  %5 = load ptr, ptr %3, align 8
  %6 = load ptr, ptr %4, align 8, !tbaa !85
  call void @_ZN5Eigen8internal9evaluatorINS_15PlainObjectBaseINS_6MatrixIfLi1ELi3ELi1ELi1ELi3EEEEEEC2ERKS5_(ptr noundef nonnull align 8 dereferenceable(8) %5, ptr noundef nonnull align 4 dereferenceable(12) %6)
  ret void
}

; Function Attrs: mustprogress nounwind uwtable
define linkonce_odr dso_local noundef nonnull align 4 dereferenceable(12) ptr @_ZNK5Eigen9EigenBaseINS_6MatrixIfLi1ELi3ELi1ELi1ELi3EEEE7derivedEv(ptr noundef nonnull align 1 dereferenceable(1) %0) #1 comdat align 2 {
  %2 = alloca ptr, align 8
  store ptr %0, ptr %2, align 8, !tbaa !275
  %3 = load ptr, ptr %2, align 8
  ret ptr %3
}

; Function Attrs: inlinehint mustprogress uwtable
define linkonce_odr dso_local noundef nonnull align 4 dereferenceable(4) ptr @_ZNK5Eigen15DenseCoeffsBaseINS_6MatrixIfLi1ELi3ELi1ELi1ELi3EEELi0EE5coeffEl(ptr noundef nonnull align 1 dereferenceable(1) %0, i64 noundef %1) #4 comdat align 2 personality ptr @__gxx_personality_v0 {
  %3 = alloca ptr, align 8
  %4 = alloca i64, align 8
  %5 = alloca %"struct.Eigen::internal::evaluator.343", align 8
  %6 = alloca ptr, align 8
  %7 = alloca i32, align 4
  store ptr %0, ptr %3, align 8, !tbaa !186
  store i64 %1, ptr %4, align 8, !tbaa !136
  %8 = load ptr, ptr %3, align 8
  call void @llvm.lifetime.start.p0(i64 8, ptr %5) #11
  %9 = call noundef nonnull align 4 dereferenceable(12) ptr @_ZNK5Eigen9EigenBaseINS_6MatrixIfLi1ELi3ELi1ELi1ELi3EEEE7derivedEv(ptr noundef nonnull align 1 dereferenceable(1) %8)
  call void @_ZN5Eigen8internal9evaluatorINS_6MatrixIfLi1ELi3ELi1ELi1ELi3EEEEC2ERKS3_(ptr noundef nonnull align 8 dereferenceable(8) %5, ptr noundef nonnull align 4 dereferenceable(12) %9)
  %10 = load i64, ptr %4, align 8, !tbaa !136
  %11 = invoke noundef nonnull align 4 dereferenceable(4) ptr @_ZNK5Eigen8internal9evaluatorINS_15PlainObjectBaseINS_6MatrixIfLi1ELi3ELi1ELi1ELi3EEEEEE5coeffEl(ptr noundef nonnull align 8 dereferenceable(8) %5, i64 noundef %10)
          to label %12 unwind label %13

12:                                               ; preds = %2
  call void @_ZN5Eigen8internal14evaluator_baseINS_6MatrixIfLi1ELi3ELi1ELi1ELi3EEEED2Ev(ptr noundef nonnull align 8 dereferenceable(8) %5) #11
  call void @llvm.lifetime.end.p0(i64 8, ptr %5) #11
  ret ptr %11

13:                                               ; preds = %2
  %14 = landingpad { ptr, i32 }
          cleanup
  %15 = extractvalue { ptr, i32 } %14, 0
  store ptr %15, ptr %6, align 8
  %16 = extractvalue { ptr, i32 } %14, 1
  store i32 %16, ptr %7, align 4
  call void @_ZN5Eigen8internal14evaluator_baseINS_6MatrixIfLi1ELi3ELi1ELi1ELi3EEEED2Ev(ptr noundef nonnull align 8 dereferenceable(8) %5) #11
  call void @llvm.lifetime.end.p0(i64 8, ptr %5) #11
  br label %17

17:                                               ; preds = %13
  %18 = load ptr, ptr %6, align 8
  %19 = load i32, ptr %7, align 4
  %20 = insertvalue { ptr, i32 } poison, ptr %18, 0
  %21 = insertvalue { ptr, i32 } %20, i32 %19, 1
  resume { ptr, i32 } %21
}

; Function Attrs: inlinehint mustprogress uwtable
define linkonce_odr dso_local noundef nonnull align 4 dereferenceable(4) ptr @_ZNK5Eigen15DenseCoeffsBaseINS_6MatrixIfLi1ELi3ELi1ELi1ELi3EEELi0EEixEl(ptr noundef nonnull align 1 dereferenceable(1) %0, i64 noundef %1) #4 comdat align 2 {
  %3 = alloca ptr, align 8
  %4 = alloca i64, align 8
  store ptr %0, ptr %3, align 8, !tbaa !186
  store i64 %1, ptr %4, align 8, !tbaa !136
  %5 = load ptr, ptr %3, align 8
  %6 = load i64, ptr %4, align 8, !tbaa !136
  %7 = call noundef nonnull align 4 dereferenceable(4) ptr @_ZNK5Eigen15DenseCoeffsBaseINS_6MatrixIfLi1ELi3ELi1ELi1ELi3EEELi0EE5coeffEl(ptr noundef nonnull align 1 dereferenceable(1) %5, i64 noundef %6)
  ret ptr %7
}

; Function Attrs: mustprogress uwtable
define dso_local void @_ZNK3igl6embree14EmbreeRenderer10create_rayER9RTCRayHitRKN5Eigen6MatrixIfLi1ELi3ELi1ELi1ELi3EEES8_ffi(ptr noundef nonnull align 16 dereferenceable(416) %0, ptr noundef nonnull align 16 dereferenceable(96) %1, ptr noundef nonnull align 4 dereferenceable(12) %2, ptr noundef nonnull align 4 dereferenceable(12) %3, float noundef %4, float noundef %5, i32 noundef %6) #3 align 2 {
  %8 = alloca ptr, align 8
  %9 = alloca ptr, align 8
  %10 = alloca ptr, align 8
  %11 = alloca ptr, align 8
  %12 = alloca float, align 4
  %13 = alloca float, align 4
  %14 = alloca i32, align 4
  store ptr %0, ptr %8, align 8, !tbaa !15
  store ptr %1, ptr %9, align 8, !tbaa !174
  store ptr %2, ptr %10, align 8, !tbaa !85
  store ptr %3, ptr %11, align 8, !tbaa !85
  store float %4, ptr %12, align 4, !tbaa !53
  store float %5, ptr %13, align 4, !tbaa !53
  store i32 %6, ptr %14, align 4, !tbaa !104
  %15 = load ptr, ptr %10, align 8, !tbaa !85
  %16 = call noundef nonnull align 4 dereferenceable(4) ptr @_ZNK5Eigen15DenseCoeffsBaseINS_6MatrixIfLi1ELi3ELi1ELi1ELi3EEELi0EEixEl(ptr noundef nonnull align 1 dereferenceable(1) %15, i64 noundef 0)
  %17 = load float, ptr %16, align 4, !tbaa !53
  %18 = load ptr, ptr %9, align 8, !tbaa !174
  %19 = getelementptr inbounds nuw %struct.RTCRayHit, ptr %18, i32 0, i32 0
  %20 = getelementptr inbounds nuw %struct.RTCRay, ptr %19, i32 0, i32 0
  store float %17, ptr %20, align 16, !tbaa !176
  %21 = load ptr, ptr %10, align 8, !tbaa !85
  %22 = call noundef nonnull align 4 dereferenceable(4) ptr @_ZNK5Eigen15DenseCoeffsBaseINS_6MatrixIfLi1ELi3ELi1ELi1ELi3EEELi0EEixEl(ptr noundef nonnull align 1 dereferenceable(1) %21, i64 noundef 1)
  %23 = load float, ptr %22, align 4, !tbaa !53
  %24 = load ptr, ptr %9, align 8, !tbaa !174
  %25 = getelementptr inbounds nuw %struct.RTCRayHit, ptr %24, i32 0, i32 0
  %26 = getelementptr inbounds nuw %struct.RTCRay, ptr %25, i32 0, i32 1
  store float %23, ptr %26, align 4, !tbaa !177
  %27 = load ptr, ptr %10, align 8, !tbaa !85
  %28 = call noundef nonnull align 4 dereferenceable(4) ptr @_ZNK5Eigen15DenseCoeffsBaseINS_6MatrixIfLi1ELi3ELi1ELi1ELi3EEELi0EEixEl(ptr noundef nonnull align 1 dereferenceable(1) %27, i64 noundef 2)
  %29 = load float, ptr %28, align 4, !tbaa !53
  %30 = load ptr, ptr %9, align 8, !tbaa !174
  %31 = getelementptr inbounds nuw %struct.RTCRayHit, ptr %30, i32 0, i32 0
  %32 = getelementptr inbounds nuw %struct.RTCRay, ptr %31, i32 0, i32 2
  store float %29, ptr %32, align 8, !tbaa !178
  %33 = load ptr, ptr %11, align 8, !tbaa !85
  %34 = call noundef nonnull align 4 dereferenceable(4) ptr @_ZNK5Eigen15DenseCoeffsBaseINS_6MatrixIfLi1ELi3ELi1ELi1ELi3EEELi0EEixEl(ptr noundef nonnull align 1 dereferenceable(1) %33, i64 noundef 0)
  %35 = load float, ptr %34, align 4, !tbaa !53
  %36 = load ptr, ptr %9, align 8, !tbaa !174
  %37 = getelementptr inbounds nuw %struct.RTCRayHit, ptr %36, i32 0, i32 0
  %38 = getelementptr inbounds nuw %struct.RTCRay, ptr %37, i32 0, i32 4
  store float %35, ptr %38, align 16, !tbaa !179
  %39 = load ptr, ptr %11, align 8, !tbaa !85
  %40 = call noundef nonnull align 4 dereferenceable(4) ptr @_ZNK5Eigen15DenseCoeffsBaseINS_6MatrixIfLi1ELi3ELi1ELi1ELi3EEELi0EEixEl(ptr noundef nonnull align 1 dereferenceable(1) %39, i64 noundef 1)
  %41 = load float, ptr %40, align 4, !tbaa !53
  %42 = load ptr, ptr %9, align 8, !tbaa !174
  %43 = getelementptr inbounds nuw %struct.RTCRayHit, ptr %42, i32 0, i32 0
  %44 = getelementptr inbounds nuw %struct.RTCRay, ptr %43, i32 0, i32 5
  store float %41, ptr %44, align 4, !tbaa !180
  %45 = load ptr, ptr %11, align 8, !tbaa !85
  %46 = call noundef nonnull align 4 dereferenceable(4) ptr @_ZNK5Eigen15DenseCoeffsBaseINS_6MatrixIfLi1ELi3ELi1ELi1ELi3EEELi0EEixEl(ptr noundef nonnull align 1 dereferenceable(1) %45, i64 noundef 2)
  %47 = load float, ptr %46, align 4, !tbaa !53
  %48 = load ptr, ptr %9, align 8, !tbaa !174
  %49 = getelementptr inbounds nuw %struct.RTCRayHit, ptr %48, i32 0, i32 0
  %50 = getelementptr inbounds nuw %struct.RTCRay, ptr %49, i32 0, i32 6
  store float %47, ptr %50, align 8, !tbaa !181
  %51 = load float, ptr %12, align 4, !tbaa !53
  %52 = load ptr, ptr %9, align 8, !tbaa !174
  %53 = getelementptr inbounds nuw %struct.RTCRayHit, ptr %52, i32 0, i32 0
  %54 = getelementptr inbounds nuw %struct.RTCRay, ptr %53, i32 0, i32 3
  store float %51, ptr %54, align 4, !tbaa !182
  %55 = load float, ptr %13, align 4, !tbaa !53
  %56 = load ptr, ptr %9, align 8, !tbaa !174
  %57 = getelementptr inbounds nuw %struct.RTCRayHit, ptr %56, i32 0, i32 0
  %58 = getelementptr inbounds nuw %struct.RTCRay, ptr %57, i32 0, i32 8
  store float %55, ptr %58, align 16, !tbaa !172
  %59 = load ptr, ptr %9, align 8, !tbaa !174
  %60 = getelementptr inbounds nuw %struct.RTCRayHit, ptr %59, i32 0, i32 0
  %61 = getelementptr inbounds nuw %struct.RTCRay, ptr %60, i32 0, i32 10
  store i32 -1, ptr %61, align 8, !tbaa !183
  %62 = load i32, ptr %14, align 4, !tbaa !104
  %63 = load ptr, ptr %9, align 8, !tbaa !174
  %64 = getelementptr inbounds nuw %struct.RTCRayHit, ptr %63, i32 0, i32 0
  %65 = getelementptr inbounds nuw %struct.RTCRay, ptr %64, i32 0, i32 9
  store i32 %62, ptr %65, align 4, !tbaa !184
  %66 = load ptr, ptr %9, align 8, !tbaa !174
  %67 = getelementptr inbounds nuw %struct.RTCRayHit, ptr %66, i32 0, i32 0
  %68 = getelementptr inbounds nuw %struct.RTCRay, ptr %67, i32 0, i32 7
  store float 0.000000e+00, ptr %68, align 4, !tbaa !185
  %69 = load ptr, ptr %9, align 8, !tbaa !174
  %70 = getelementptr inbounds nuw %struct.RTCRayHit, ptr %69, i32 0, i32 1
  %71 = getelementptr inbounds nuw %struct.RTCHit, ptr %70, i32 0, i32 6
  store i32 -1, ptr %71, align 8, !tbaa !163
  %72 = load ptr, ptr %9, align 8, !tbaa !174
  %73 = getelementptr inbounds nuw %struct.RTCRayHit, ptr %72, i32 0, i32 1
  %74 = getelementptr inbounds nuw %struct.RTCHit, ptr %73, i32 0, i32 7
  %75 = getelementptr inbounds [1 x i32], ptr %74, i64 0, i64 0
  store i32 -1, ptr %75, align 4, !tbaa !104
  %76 = load ptr, ptr %9, align 8, !tbaa !174
  %77 = getelementptr inbounds nuw %struct.RTCRayHit, ptr %76, i32 0, i32 1
  %78 = getelementptr inbounds nuw %struct.RTCHit, ptr %77, i32 0, i32 5
  store i32 -1, ptr %78, align 4, !tbaa !164
  ret void
}