; Function Attrs: mustprogress nofree norecurse nosync nounwind willreturn memory(argmem: readwrite) uwtable
define dso_local void @_ZNK3igl6embree14EmbreeRenderer10create_rayER9RTCRayHitRKN5Eigen6MatrixIfLi1ELi3ELi1ELi1ELi3EEES8_ffi(ptr noundef nonnull readnone align 16 captures(none) dereferenceable(416) %0, ptr noundef nonnull writeonly align 16 captures(none) dereferenceable(96) initializes((0, 44), (68, 80)) %1, ptr noundef nonnull readonly align 4 captures(none) dereferenceable(12) %2, ptr noundef nonnull readonly align 4 captures(none) dereferenceable(12) %3, float noundef %4, float noundef %5, i32 noundef %6) local_unnamed_addr #9 align 2 personality ptr @__gxx_personality_v0 {
  %8 = load float, ptr %2, align 4, !tbaa !43
  store float %8, ptr %1, align 16, !tbaa !127
  %9 = getelementptr inbounds nuw i8, ptr %2, i64 4
  %10 = load float, ptr %9, align 4, !tbaa !43
  %11 = getelementptr inbounds nuw i8, ptr %1, i64 4
  store float %10, ptr %11, align 4, !tbaa !128
  %12 = getelementptr inbounds nuw i8, ptr %2, i64 8
  %13 = load float, ptr %12, align 4, !tbaa !43
  %14 = getelementptr inbounds nuw i8, ptr %1, i64 8
  store float %13, ptr %14, align 8, !tbaa !129
  %15 = load float, ptr %3, align 4, !tbaa !43
  %16 = getelementptr inbounds nuw i8, ptr %1, i64 16
  store float %15, ptr %16, align 16, !tbaa !130
  %17 = getelementptr inbounds nuw i8, ptr %3, i64 4
  %18 = load float, ptr %17, align 4, !tbaa !43
  %19 = getelementptr inbounds nuw i8, ptr %1, i64 20
  store float %18, ptr %19, align 4, !tbaa !131
  %20 = getelementptr inbounds nuw i8, ptr %3, i64 8
  %21 = load float, ptr %20, align 4, !tbaa !43
  %22 = getelementptr inbounds nuw i8, ptr %1, i64 24
  store float %21, ptr %22, align 8, !tbaa !132
  %23 = getelementptr inbounds nuw i8, ptr %1, i64 12
  store float %4, ptr %23, align 4, !tbaa !133
  %24 = getelementptr inbounds nuw i8, ptr %1, i64 32
  store float %5, ptr %24, align 16, !tbaa !134
  %25 = getelementptr inbounds nuw i8, ptr %1, i64 40
  store i32 -1, ptr %25, align 8, !tbaa !135
  %26 = getelementptr inbounds nuw i8, ptr %1, i64 36
  store i32 %6, ptr %26, align 4, !tbaa !136
  %27 = getelementptr inbounds nuw i8, ptr %1, i64 28
  store float 0.000000e+00, ptr %27, align 4, !tbaa !137
  %28 = getelementptr inbounds nuw i8, ptr %1, i64 72
  store i32 -1, ptr %28, align 8, !tbaa !138
  %29 = getelementptr inbounds nuw i8, ptr %1, i64 76
  store i32 -1, ptr %29, align 4, !tbaa !88
  %30 = getelementptr inbounds nuw i8, ptr %1, i64 68
  store i32 -1, ptr %30, align 4, !tbaa !139
  ret void
}